(dp1
S'OriginalConfig'
p2
ccopy_reg
_reconstructor
p3
(cWMCore.Configuration
Configuration
p4
c__builtin__
object
p5
NtRp6
(dp7
S'Site'
p8
g3
(cWMCore.Configuration
ConfigSection
p9
g5
NtRp10
(dp11
S'_internal_skipChecks'
p12
I00
sS'_internal_documentation'
p13
S''
sS'_internal_settings'
p14
c__builtin__
set
p15
((lp16
S'whitelist'
p17
aS'storageSite'
p18
atRp19
sS'_internal_name'
p20
g8
sS'_internal_docstrings'
p21
(dp22
sS'_internal_children'
p23
g15
((ltRp24
sg18
S'T2_CH_CERN'
p25
sS'_internal_parent_ref'
p26
Nsg17
(lp27
S'T2_US_MIT'
p28
aS'T2_BR_SPRACE'
p29
asbsS'_internal_sections'
p30
(lp31
S'General'
p32
aS'JobType'
p33
aS'Data'
p34
ag8
aS'User'
p35
aS'Debug'
p36
asg32
g3
(g9
g5
NtRp37
(dp38
g12
I00
sg13
S''
sg14
g15
((lp39
S'transferOutputs'
p40
atRp41
sg20
g32
sg21
(dp42
sg40
I01
sg23
g15
((ltRp43
sg26
NsbsS'_internal_webapps'
p44
(lp45
sg35
g3
(g9
g5
NtRp46
(dp47
g12
I00
sg13
S''
sg14
g15
((ltRp48
sg20
g35
sg21
(dp49
sg23
g15
((ltRp50
sg26
NsbsS'_internal_components'
p51
(lp52
sg36
g3
(g9
g5
NtRp53
(dp54
g12
I00
sg13
S''
sg14
g15
((ltRp55
sg20
g36
sg21
(dp56
sg23
g15
((ltRp57
sg26
Nsbsg34
g3
(g9
g5
NtRp58
(dp59
S'inputDataset'
p60
S'/HIEmptyBX/XeXeRun2017-v1/RAW'
p61
sS'outputDatasetTag'
p62
S'XeXeEMB'
p63
sg12
I00
sS'splitting'
p64
S'EventAwareLumiBased'
p65
sS'unitsPerJob'
p66
I1
sg13
S''
sg14
g15
((lp67
g60
ag62
aS'totalUnits'
p68
ag66
ag64
aS'inputDBS'
p69
aS'outLFNDirBase'
p70
aS'publication'
p71
atRp72
sg20
g34
sg69
S'global'
p73
sg21
(dp74
sg23
g15
((ltRp75
sg71
I00
sg70
S'/store/group/phys_heavyions/zshi/MBTrigger/L1NutpleXeXeEMBX'
p76
sg26
Nsg68
I-1
sbsg33
g3
(g9
g5
NtRp77
(dp78
S'outputFiles'
p79
(lp80
S'L1Ntuple.root'
p81
asg12
I00
sg13
S''
sg14
g15
((lp82
S'psetName'
p83
aS'pluginName'
p84
ag79
aS'maxMemoryMB'
p85
atRp86
sg20
g33
sg21
(dp87
sg84
S'Analysis'
p88
sg23
g15
((ltRp89
sg83
S'XeXeDum.py'
p90
sg26
Nsg85
I4000
sbsbsS'voGroup'
p91
S''
sS'Server'
p92
S'cmsweb.cern.ch'
p93
sS'instance'
p94
S'prod'
p95
sS'RequestName'
p96
V181003_153147:szhaozho_crab_20181003_173049
p97
sS'voRole'
p98
S'NULL'
p99
sS'Port'
p100
S''
s.