(dp1
S'OriginalConfig'
p2
ccopy_reg
_reconstructor
p3
(cWMCore.Configuration
Configuration
p4
c__builtin__
object
p5
NtRp6
(dp7
S'Site'
p8
g3
(cWMCore.Configuration
ConfigSection
p9
g5
NtRp10
(dp11
S'_internal_skipChecks'
p12
I00
sS'_internal_documentation'
p13
S''
sS'_internal_settings'
p14
c__builtin__
set
p15
((lp16
S'whitelist'
p17
aS'storageSite'
p18
atRp19
sS'_internal_name'
p20
g8
sS'_internal_docstrings'
p21
(dp22
sS'_internal_children'
p23
g15
((ltRp24
sg18
S'T2_CH_CERN'
p25
sS'_internal_parent_ref'
p26
Nsg17
(lp27
S'T2_US_MIT'
p28
aS'T2_DE_RWTH'
p29
aS'T2_UK_London_Brunel'
p30
aS'T2_FR_GRIF_LLR'
p31
aS'T2_US_Nebraska'
p32
ag25
aS'T2_US_Vanderbilt'
p33
aS'T2_US_Purdue'
p34
asbsS'_internal_sections'
p35
(lp36
S'General'
p37
aS'JobType'
p38
aS'Data'
p39
ag8
aS'User'
p40
aS'Debug'
p41
asg37
g3
(g9
g5
NtRp42
(dp43
g12
I00
sg13
S''
sg14
g15
((lp44
S'transferOutputs'
p45
atRp46
sg20
g37
sg21
(dp47
sg45
I01
sg23
g15
((ltRp48
sg26
NsbsS'_internal_webapps'
p49
(lp50
sg40
g3
(g9
g5
NtRp51
(dp52
g12
I00
sg13
S''
sg14
g15
((ltRp53
sg20
g40
sg21
(dp54
sg23
g15
((ltRp55
sg26
NsbsS'_internal_components'
p56
(lp57
sg41
g3
(g9
g5
NtRp58
(dp59
g12
I00
sg13
S''
sg14
g15
((ltRp60
sg20
g41
sg21
(dp61
sg23
g15
((ltRp62
sg26
Nsbsg39
g3
(g9
g5
NtRp63
(dp64
S'inputDataset'
p65
S'/HIZeroBias/XeXeRun2017-v1/RAW'
p66
sS'outputDatasetTag'
p67
S'XeXeZB'
p68
sg12
I00
sS'splitting'
p69
S'EventAwareLumiBased'
p70
sS'unitsPerJob'
p71
I1
sg13
S''
sg14
g15
((lp72
g65
ag67
aS'totalUnits'
p73
ag71
ag69
aS'inputDBS'
p74
aS'outLFNDirBase'
p75
aS'publication'
p76
atRp77
sg20
g39
sg74
S'global'
p78
sg21
(dp79
sg23
g15
((ltRp80
sg76
I00
sg75
S'/store/group/phys_heavyions/zshi/MBTrigger/L1NutpleXeXeZB'
p81
sg26
Nsg73
I-1
sbsg38
g3
(g9
g5
NtRp82
(dp83
S'outputFiles'
p84
(lp85
S'L1Ntuple.root'
p86
asg12
I00
sg13
S''
sg14
g15
((lp87
S'psetName'
p88
aS'pluginName'
p89
ag84
aS'maxMemoryMB'
p90
atRp91
sg20
g38
sg21
(dp92
sg89
S'Analysis'
p93
sg23
g15
((ltRp94
sg88
S'XeXeDum.py'
p95
sg26
Nsg90
I4000
sbsbsS'voGroup'
p96
S''
sS'Server'
p97
S'cmsweb.cern.ch'
p98
sS'instance'
p99
S'prod'
p100
sS'RequestName'
p101
V180927_191813:szhaozho_crab_20180927_211701
p102
sS'voRole'
p103
S'NULL'
p104
sS'Port'
p105
S''
s.